target datalayout = "e-m:e-p270:32:32-p271:32:32-p272:64:64-i64:64-i128:128-f80:128-n8:16:32:64-S128"
target triple = "x86_64-pc-linux-gnu"

%"class.llvm::APFloat" = type { [8 x i8], %"union.llvm::APFloat::Storage" }
%"union.llvm::APFloat::Storage" = type { %"class.llvm::detail::DoubleAPFloat", [8 x i8] }
%"class.llvm::detail::DoubleAPFloat" = type { ptr, %"class.std::unique_ptr" }
%"class.std::unique_ptr" = type { %"struct.std::__uniq_ptr_data" }
%"struct.std::__uniq_ptr_data" = type { %"class.std::__uniq_ptr_impl" }
%"class.std::__uniq_ptr_impl" = type { %"class.std::tuple" }
%"class.std::tuple" = type { %"struct.std::_Tuple_impl" }
%"struct.std::_Tuple_impl" = type { %"struct.std::_Head_base.152" }
%"struct.std::_Head_base.152" = type { ptr }
%"class.(anonymous namespace)::FAddend" = type { ptr, %"class.(anonymous namespace)::FAddendCoef" }
%"class.(anonymous namespace)::FAddendCoef" = type { i8, i8, i16, [4 x i8], %"struct.llvm::AlignedCharArrayUnion.368" }
%"struct.llvm::AlignedCharArrayUnion.368" = type { [32 x i8] }

; Function Attrs: mustprogress nounwind uwtable
define linkonce_odr hidden void @_ZN4llvm7APFloat7StorageD2Ev(ptr noundef nonnull align 8 dereferenceable(24) %0) unnamed_addr #0 comdat align 2 {
  %2 = alloca ptr, align 8
  store ptr %0, ptr %2, align 8
  %3 = load ptr, ptr %2, align 8
  %4 = load ptr, ptr %3, align 8
  %5 = call noundef zeroext i1 @_ZN4llvm7APFloat10usesLayoutINS_6detail9IEEEFloatEEEbRKNS_12fltSemanticsE(ptr noundef nonnull align 1 %4)
  br i1 %5, label %6, label %7

6:                                                ; preds = %1
  call void @_ZN4llvm6detail9IEEEFloatD1Ev(ptr noundef nonnull align 8 dereferenceable(24) %3) #12
  br label %12

7:                                                ; preds = %1
  %8 = load ptr, ptr %3, align 8
  %9 = call noundef zeroext i1 @_ZN4llvm7APFloat10usesLayoutINS_6detail13DoubleAPFloatEEEbRKNS_12fltSemanticsE(ptr noundef nonnull align 1 %8)
  br i1 %9, label %10, label %11

10:                                               ; preds = %7
  call void @_ZN4llvm6detail13DoubleAPFloatD2Ev(ptr noundef nonnull align 8 dereferenceable(16) %3) #12
  br label %12

11:                                               ; preds = %7
  unreachable

12:                                               ; preds = %10, %6
  ret void
}

; Function Attrs: mustprogress nounwind uwtable
define linkonce_odr hidden noundef zeroext i1 @_ZN4llvm7APFloat10usesLayoutINS_6detail13DoubleAPFloatEEEbRKNS_12fltSemanticsE(ptr noundef nonnull align 1 %0) #0 comdat align 2 {
  %2 = alloca ptr, align 8
  store ptr %0, ptr %2, align 8
  %3 = load ptr, ptr %2, align 8
  %4 = call noundef nonnull align 1 ptr @_ZN4llvm11APFloatBase15PPCDoubleDoubleEv() #14
  %5 = icmp eq ptr %3, %4
  ret i1 %5
}

; Function Attrs: mustprogress nounwind uwtable
define linkonce_odr hidden noundef zeroext i1 @_ZN4llvm7APFloat10usesLayoutINS_6detail9IEEEFloatEEEbRKNS_12fltSemanticsE(ptr noundef nonnull align 1 %0) #0 comdat align 2 {
  %2 = alloca ptr, align 8
  store ptr %0, ptr %2, align 8
  %3 = load ptr, ptr %2, align 8
  %4 = call noundef nonnull align 1 ptr @_ZN4llvm11APFloatBase15PPCDoubleDoubleEv() #14
  %5 = icmp ne ptr %3, %4
  ret i1 %5
}

; Function Attrs: mustprogress nounwind uwtable
define internal noundef ptr @_ZN12_GLOBAL__N_111FAddendCoef11getFpValPtrEv(ptr noundef nonnull align 8 dereferenceable(40) %0) #0 align 2 {
  %2 = alloca ptr, align 8
  store ptr %0, ptr %2, align 8
  %3 = load ptr, ptr %2, align 8
  %4 = getelementptr inbounds nuw %"class.(anonymous namespace)::FAddendCoef", ptr %3, i32 0, i32 4
  ret ptr %4
}

; Function Attrs: mustprogress nounwind uwtable
define internal noundef ptr @_ZNK12_GLOBAL__N_111FAddendCoef11getFpValPtrEv(ptr noundef nonnull align 8 dereferenceable(40) %0) #0 align 2 {
  %2 = alloca ptr, align 8
  store ptr %0, ptr %2, align 8
  %3 = load ptr, ptr %2, align 8
  %4 = getelementptr inbounds nuw %"class.(anonymous namespace)::FAddendCoef", ptr %3, i32 0, i32 4
  ret ptr %4
}

; Function Attrs: mustprogress nounwind uwtable
define linkonce_odr hidden void @_ZN4llvm7APFloat10changeSignEv(ptr noundef nonnull align 8 dereferenceable(32) %0) #0 comdat align 2 {
  %2 = alloca ptr, align 8
  store ptr %0, ptr %2, align 8
  %3 = load ptr, ptr %2, align 8
  br label %4

4:                                                ; preds = %1
  %5 = call noundef nonnull align 1 ptr @_ZNK4llvm7APFloat12getSemanticsEv(ptr noundef nonnull align 8 dereferenceable(32) %3)
  %6 = call noundef zeroext i1 @_ZN4llvm7APFloat10usesLayoutINS_6detail9IEEEFloatEEEbRKNS_12fltSemanticsE(ptr noundef nonnull align 1 %5)
  br i1 %6, label %7, label %9

7:                                                ; preds = %4
  %8 = getelementptr inbounds nuw %"class.llvm::APFloat", ptr %3, i32 0, i32 1
  call void @_ZN4llvm6detail9IEEEFloat10changeSignEv(ptr noundef nonnull align 8 dereferenceable(24) %8)
  br label %15

9:                                                ; preds = %4
  %10 = call noundef nonnull align 1 ptr @_ZNK4llvm7APFloat12getSemanticsEv(ptr noundef nonnull align 8 dereferenceable(32) %3)
  %11 = call noundef zeroext i1 @_ZN4llvm7APFloat10usesLayoutINS_6detail13DoubleAPFloatEEEbRKNS_12fltSemanticsE(ptr noundef nonnull align 1 %10)
  br i1 %11, label %12, label %14

12:                                               ; preds = %9
  %13 = getelementptr inbounds nuw %"class.llvm::APFloat", ptr %3, i32 0, i32 1
  call void @_ZN4llvm6detail13DoubleAPFloat10changeSignEv(ptr noundef nonnull align 8 dereferenceable(16) %13)
  br label %15

14:                                               ; preds = %9
  unreachable

15:                                               ; preds = %12, %7
  ret void
}

; Function Attrs: mustprogress nounwind uwtable
define linkonce_odr hidden void @_ZN4llvm7APFloatD2Ev(ptr noundef nonnull align 8 dereferenceable(32) %0) unnamed_addr #0 comdat align 2 {
  %2 = alloca ptr, align 8
  store ptr %0, ptr %2, align 8
  %3 = load ptr, ptr %2, align 8
  %4 = getelementptr inbounds nuw %"class.llvm::APFloat", ptr %3, i32 0, i32 1
  call void @_ZN4llvm7APFloat7StorageD2Ev(ptr noundef nonnull align 8 dereferenceable(24) %4) #12
  ret void
}

; Function Attrs: mustprogress nounwind uwtable
define linkonce_odr hidden noundef i32 @_ZN4llvm7APFloat8multiplyERKS0_NS_12RoundingModeE(ptr noundef nonnull align 8 dereferenceable(32) %0, ptr noundef nonnull align 8 dereferenceable(32) %1, i8 noundef signext %2) #0 comdat align 2 {
  %4 = alloca i32, align 4
  %5 = alloca ptr, align 8
  %6 = alloca ptr, align 8
  %7 = alloca i8, align 1
  store ptr %0, ptr %5, align 8
  store ptr %1, ptr %6, align 8
  store i8 %2, ptr %7, align 1
  %8 = load ptr, ptr %5, align 8
  %9 = call noundef nonnull align 1 ptr @_ZNK4llvm7APFloat12getSemanticsEv(ptr noundef nonnull align 8 dereferenceable(32) %8)
  %10 = call noundef zeroext i1 @_ZN4llvm7APFloat10usesLayoutINS_6detail9IEEEFloatEEEbRKNS_12fltSemanticsE(ptr noundef nonnull align 1 %9)
  br i1 %10, label %11, label %17

11:                                               ; preds = %3
  %12 = getelementptr inbounds nuw %"class.llvm::APFloat", ptr %8, i32 0, i32 1
  %13 = load ptr, ptr %6, align 8
  %14 = getelementptr inbounds nuw %"class.llvm::APFloat", ptr %13, i32 0, i32 1
  %15 = load i8, ptr %7, align 1
  %16 = call noundef i32 @_ZN4llvm6detail9IEEEFloat8multiplyERKS1_NS_12RoundingModeE(ptr noundef nonnull align 8 dereferenceable(24) %12, ptr noundef nonnull align 8 dereferenceable(24) %14, i8 noundef signext %15)
  store i32 %16, ptr %4, align 4
  br label %27

17:                                               ; preds = %3
  %18 = call noundef nonnull align 1 ptr @_ZNK4llvm7APFloat12getSemanticsEv(ptr noundef nonnull align 8 dereferenceable(32) %8)
  %19 = call noundef zeroext i1 @_ZN4llvm7APFloat10usesLayoutINS_6detail13DoubleAPFloatEEEbRKNS_12fltSemanticsE(ptr noundef nonnull align 1 %18)
  br i1 %19, label %20, label %26

20:                                               ; preds = %17
  %21 = getelementptr inbounds nuw %"class.llvm::APFloat", ptr %8, i32 0, i32 1
  %22 = load ptr, ptr %6, align 8
  %23 = getelementptr inbounds nuw %"class.llvm::APFloat", ptr %22, i32 0, i32 1
  %24 = load i8, ptr %7, align 1
  %25 = call noundef i32 @_ZN4llvm6detail13DoubleAPFloat8multiplyERKS1_NS_12RoundingModeE(ptr noundef nonnull align 8 dereferenceable(16) %21, ptr noundef nonnull align 8 dereferenceable(16) %23, i8 noundef signext %24)
  store i32 %25, ptr %4, align 4
  br label %27

26:                                               ; preds = %17
  unreachable

27:                                               ; preds = %20, %11
  %28 = load i32, ptr %4, align 4
  ret i32 %28
}

; Function Attrs: mustprogress nounwind uwtable
define internal noundef nonnull align 8 dereferenceable(32) ptr @_ZN12_GLOBAL__N_111FAddendCoef8getFpValEv(ptr noundef nonnull align 8 dereferenceable(40) %0) #0 align 2 {
  %2 = alloca ptr, align 8
  store ptr %0, ptr %2, align 8
  %3 = load ptr, ptr %2, align 8
  %4 = call noundef ptr @_ZN12_GLOBAL__N_111FAddendCoef11getFpValPtrEv(ptr noundef nonnull align 8 dereferenceable(40) %3)
  ret ptr %4
}

; Function Attrs: mustprogress nounwind uwtable
define linkonce_odr hidden noundef nonnull align 1 ptr @_ZNK4llvm7APFloat12getSemanticsEv(ptr noundef nonnull align 8 dereferenceable(32) %0) #0 comdat align 2 {
  %2 = alloca ptr, align 8
  store ptr %0, ptr %2, align 8
  %3 = load ptr, ptr %2, align 8
  %4 = getelementptr inbounds nuw %"class.llvm::APFloat", ptr %3, i32 0, i32 1
  %5 = load ptr, ptr %4, align 8
  ret ptr %5
}

; Function Attrs: mustprogress nounwind uwtable
define internal noundef nonnull align 8 dereferenceable(32) ptr @_ZNK12_GLOBAL__N_111FAddendCoef8getFpValEv(ptr noundef nonnull align 8 dereferenceable(40) %0) #0 align 2 {
  %2 = alloca ptr, align 8
  store ptr %0, ptr %2, align 8
  %3 = load ptr, ptr %2, align 8
  %4 = call noundef ptr @_ZNK12_GLOBAL__N_111FAddendCoef11getFpValPtrEv(ptr noundef nonnull align 8 dereferenceable(40) %3)
  ret ptr %4
}

; Function Attrs: mustprogress nounwind uwtable
define internal noundef zeroext i1 @_ZNK12_GLOBAL__N_111FAddendCoef5isIntEv(ptr noundef nonnull align 8 dereferenceable(40) %0) #0 align 2 {
  %2 = alloca ptr, align 8
  store ptr %0, ptr %2, align 8
  %3 = load ptr, ptr %2, align 8
  %4 = getelementptr inbounds nuw %"class.(anonymous namespace)::FAddendCoef", ptr %3, i32 0, i32 0
  %5 = load i8, ptr %4, align 8
  %6 = trunc i8 %5 to i1
  %7 = xor i1 %6, true
  ret i1 %7
}

; Function Attrs: mustprogress nounwind uwtable
define internal void @_ZN12_GLOBAL__N_111FAddendCoef6negateEv(ptr noundef nonnull align 8 dereferenceable(40) %0) #0 align 2 {
  %2 = alloca ptr, align 8
  store ptr %0, ptr %2, align 8
  %3 = load ptr, ptr %2, align 8
  %4 = call noundef zeroext i1 @_ZNK12_GLOBAL__N_111FAddendCoef5isIntEv(ptr noundef nonnull align 8 dereferenceable(40) %3)
  br i1 %4, label %5, label %12

5:                                                ; preds = %1
  %6 = getelementptr inbounds nuw %"class.(anonymous namespace)::FAddendCoef", ptr %3, i32 0, i32 2
  %7 = load i16, ptr %6, align 2
  %8 = sext i16 %7 to i32
  %9 = sub nsw i32 0, %8
  %10 = trunc i32 %9 to i16
  %11 = getelementptr inbounds nuw %"class.(anonymous namespace)::FAddendCoef", ptr %3, i32 0, i32 2
  store i16 %10, ptr %11, align 2
  br label %14

12:                                               ; preds = %1
  %13 = call noundef nonnull align 8 dereferenceable(32) ptr @_ZN12_GLOBAL__N_111FAddendCoef8getFpValEv(ptr noundef nonnull align 8 dereferenceable(40) %3)
  call void @_ZN4llvm7APFloat10changeSignEv(ptr noundef nonnull align 8 dereferenceable(32) %13)
  br label %14

14:                                               ; preds = %12, %5
  ret void
}

; Function Attrs: mustprogress nounwind uwtable
define internal noundef zeroext i1 @_ZNK12_GLOBAL__N_111FAddendCoef10isMinusOneEv(ptr noundef nonnull align 8 dereferenceable(40) %0) #0 align 2 {
  %2 = alloca ptr, align 8
  store ptr %0, ptr %2, align 8
  %3 = load ptr, ptr %2, align 8
  %4 = call noundef zeroext i1 @_ZNK12_GLOBAL__N_111FAddendCoef5isIntEv(ptr noundef nonnull align 8 dereferenceable(40) %3)
  br i1 %4, label %5, label %10

5:                                                ; preds = %1
  %6 = getelementptr inbounds nuw %"class.(anonymous namespace)::FAddendCoef", ptr %3, i32 0, i32 2
  %7 = load i16, ptr %6, align 2
  %8 = sext i16 %7 to i32
  %9 = icmp eq i32 %8, -1
  br label %10

10:                                               ; preds = %5, %1
  %11 = phi i1 [ false, %1 ], [ %9, %5 ]
  ret i1 %11
}

; Function Attrs: mustprogress nounwind uwtable
define internal noundef zeroext i1 @_ZNK12_GLOBAL__N_111FAddendCoef5isOneEv(ptr noundef nonnull align 8 dereferenceable(40) %0) #0 align 2 {
  %2 = alloca ptr, align 8
  store ptr %0, ptr %2, align 8
  %3 = load ptr, ptr %2, align 8
  %4 = call noundef zeroext i1 @_ZNK12_GLOBAL__N_111FAddendCoef5isIntEv(ptr noundef nonnull align 8 dereferenceable(40) %3)
  br i1 %4, label %5, label %10

5:                                                ; preds = %1
  %6 = getelementptr inbounds nuw %"class.(anonymous namespace)::FAddendCoef", ptr %3, i32 0, i32 2
  %7 = load i16, ptr %6, align 2
  %8 = sext i16 %7 to i32
  %9 = icmp eq i32 %8, 1
  br label %10

10:                                               ; preds = %5, %1
  %11 = phi i1 [ false, %1 ], [ %9, %5 ]
  ret i1 %11
}

; Function Attrs: mustprogress nounwind uwtable
define internal void @_ZN12_GLOBAL__N_111FAddendCoefmLERKS0_(ptr noundef nonnull align 8 dereferenceable(40) %0, ptr noundef nonnull align 8 dereferenceable(40) %1) #0 align 2 {
  %3 = alloca ptr, align 8
  %4 = alloca ptr, align 8
  %5 = alloca i32, align 4
  %6 = alloca ptr, align 8
  %7 = alloca ptr, align 8
  %8 = alloca %"class.llvm::APFloat", align 8
  store ptr %0, ptr %3, align 8
  store ptr %1, ptr %4, align 8
  %9 = load ptr, ptr %3, align 8
  %10 = load ptr, ptr %4, align 8
  %11 = call noundef zeroext i1 @_ZNK12_GLOBAL__N_111FAddendCoef5isOneEv(ptr noundef nonnull align 8 dereferenceable(40) %10)
  br i1 %11, label %12, label %13

12:                                               ; preds = %2
  br label %65

13:                                               ; preds = %2
  %14 = load ptr, ptr %4, align 8
  %15 = call noundef zeroext i1 @_ZNK12_GLOBAL__N_111FAddendCoef10isMinusOneEv(ptr noundef nonnull align 8 dereferenceable(40) %14)
  br i1 %15, label %16, label %17

16:                                               ; preds = %13
  call void @_ZN12_GLOBAL__N_111FAddendCoef6negateEv(ptr noundef nonnull align 8 dereferenceable(40) %9)
  br label %65

17:                                               ; preds = %13
  %18 = call noundef zeroext i1 @_ZNK12_GLOBAL__N_111FAddendCoef5isIntEv(ptr noundef nonnull align 8 dereferenceable(40) %9)
  br i1 %18, label %19, label %34

19:                                               ; preds = %17
  %20 = load ptr, ptr %4, align 8
  %21 = call noundef zeroext i1 @_ZNK12_GLOBAL__N_111FAddendCoef5isIntEv(ptr noundef nonnull align 8 dereferenceable(40) %20)
  br i1 %21, label %22, label %34

22:                                               ; preds = %19
  %23 = getelementptr inbounds nuw %"class.(anonymous namespace)::FAddendCoef", ptr %9, i32 0, i32 2
  %24 = load i16, ptr %23, align 2
  %25 = sext i16 %24 to i32
  %26 = load ptr, ptr %4, align 8
  %27 = getelementptr inbounds nuw %"class.(anonymous namespace)::FAddendCoef", ptr %26, i32 0, i32 2
  %28 = load i16, ptr %27, align 2
  %29 = sext i16 %28 to i32
  %30 = mul nsw i32 %25, %29
  store i32 %30, ptr %5, align 4
  %31 = load i32, ptr %5, align 4
  %32 = trunc i32 %31 to i16
  %33 = getelementptr inbounds nuw %"class.(anonymous namespace)::FAddendCoef", ptr %9, i32 0, i32 2
  store i16 %32, ptr %33, align 2
  br label %65

34:                                               ; preds = %19, %17
  %35 = call noundef zeroext i1 @_ZNK12_GLOBAL__N_111FAddendCoef5isIntEv(ptr noundef nonnull align 8 dereferenceable(40) %9)
  br i1 %35, label %36, label %40

36:                                               ; preds = %34
  %37 = load ptr, ptr %4, align 8
  %38 = call noundef nonnull align 8 dereferenceable(32) ptr @_ZNK12_GLOBAL__N_111FAddendCoef8getFpValEv(ptr noundef nonnull align 8 dereferenceable(40) %37)
  %39 = call noundef nonnull align 1 ptr @_ZNK4llvm7APFloat12getSemanticsEv(ptr noundef nonnull align 8 dereferenceable(32) %38)
  br label %43

40:                                               ; preds = %34
  %41 = call noundef nonnull align 8 dereferenceable(32) ptr @_ZN12_GLOBAL__N_111FAddendCoef8getFpValEv(ptr noundef nonnull align 8 dereferenceable(40) %9)
  %42 = call noundef nonnull align 1 ptr @_ZNK4llvm7APFloat12getSemanticsEv(ptr noundef nonnull align 8 dereferenceable(32) %41)
  br label %43

43:                                               ; preds = %40, %36
  %44 = phi ptr [ %39, %36 ], [ %42, %40 ]
  store ptr %44, ptr %6, align 8
  %45 = call noundef zeroext i1 @_ZNK12_GLOBAL__N_111FAddendCoef5isIntEv(ptr noundef nonnull align 8 dereferenceable(40) %9)
  br i1 %45, label %46, label %48

46:                                               ; preds = %43
  %47 = load ptr, ptr %6, align 8
  call void @_ZN12_GLOBAL__N_111FAddendCoef15convertToFpTypeERKN4llvm12fltSemanticsE(ptr noundef nonnull align 8 dereferenceable(40) %9, ptr noundef nonnull align 1 %47)
  br label %48

48:                                               ; preds = %46, %43
  %49 = call noundef nonnull align 8 dereferenceable(32) ptr @_ZN12_GLOBAL__N_111FAddendCoef8getFpValEv(ptr noundef nonnull align 8 dereferenceable(40) %9)
  store ptr %49, ptr %7, align 8
  %50 = load ptr, ptr %4, align 8
  %51 = call noundef zeroext i1 @_ZNK12_GLOBAL__N_111FAddendCoef5isIntEv(ptr noundef nonnull align 8 dereferenceable(40) %50)
  br i1 %51, label %52, label %60

52:                                               ; preds = %48
  %53 = load ptr, ptr %7, align 8
  %54 = load ptr, ptr %6, align 8
  %55 = load ptr, ptr %4, align 8
  %56 = getelementptr inbounds nuw %"class.(anonymous namespace)::FAddendCoef", ptr %55, i32 0, i32 2
  %57 = load i16, ptr %56, align 2
  %58 = sext i16 %57 to i32
  call void @_ZN12_GLOBAL__N_111FAddendCoef20createAPFloatFromIntERKN4llvm12fltSemanticsEi(ptr dead_on_unwind writable sret(%"class.llvm::APFloat") align 8 %8, ptr noundef nonnull align 8 dereferenceable(40) %9, ptr noundef nonnull align 1 %54, i32 noundef %58)
  %59 = call noundef i32 @_ZN4llvm7APFloat8multiplyERKS0_NS_12RoundingModeE(ptr noundef nonnull align 8 dereferenceable(32) %53, ptr noundef nonnull align 8 dereferenceable(32) %8, i8 noundef signext 1)
  call void @_ZN4llvm7APFloatD2Ev(ptr noundef nonnull align 8 dereferenceable(32) %8) #12
  br label %65

60:                                               ; preds = %48
  %61 = load ptr, ptr %7, align 8
  %62 = load ptr, ptr %4, align 8
  %63 = call noundef nonnull align 8 dereferenceable(32) ptr @_ZNK12_GLOBAL__N_111FAddendCoef8getFpValEv(ptr noundef nonnull align 8 dereferenceable(40) %62)
  %64 = call noundef i32 @_ZN4llvm7APFloat8multiplyERKS0_NS_12RoundingModeE(ptr noundef nonnull align 8 dereferenceable(32) %61, ptr noundef nonnull align 8 dereferenceable(32) %63, i8 noundef signext 1)
  br label %65

65:                                               ; preds = %60, %52, %22, %16, %12
  ret void
}

; Function Attrs: mustprogress nounwind uwtable
define internal void @_ZN12_GLOBAL__N_17FAddend5ScaleERKNS_11FAddendCoefE(ptr noundef nonnull align 8 dereferenceable(48) %0, ptr noundef nonnull align 8 dereferenceable(40) %1) #0 align 2 {
  %3 = alloca ptr, align 8
  %4 = alloca ptr, align 8
  store ptr %0, ptr %3, align 8
  store ptr %1, ptr %4, align 8
  %5 = load ptr, ptr %3, align 8
  %6 = load ptr, ptr %4, align 8
  %7 = getelementptr inbounds nuw %"class.(anonymous namespace)::FAddend", ptr %5, i32 0, i32 1
  call void @_ZN12_GLOBAL__N_111FAddendCoefmLERKS0_(ptr noundef nonnull align 8 dereferenceable(40) %7, ptr noundef nonnull align 8 dereferenceable(40) %6)
  ret void
}