; Function Attrs: mustprogress nounwind uwtable
define internal fastcc void @_ZN12_GLOBAL__N_17FAddend5ScaleERKNS_11FAddendCoefE(ptr noundef nonnull align 8 dereferenceable(48) %0, ptr noundef nonnull align 8 dereferenceable(40) %1) unnamed_addr #0 align 2 {
  %3 = alloca %"class.llvm::APFloat", align 8
  %4 = getelementptr inbounds nuw i8, ptr %0, i64 8
  call void @llvm.lifetime.start.p0(i64 32, ptr nonnull %3)
  %.val17.i = load i8, ptr %1, align 8
  %5 = getelementptr inbounds nuw i8, ptr %1, i64 2
  %.val18.i = load i16, ptr %5, align 2
  %6 = trunc i8 %.val17.i to i1
  %7 = icmp ne i16 %.val18.i, 1
  %.not26.i = select i1 %6, i1 true, i1 %7
  br i1 %.not26.i, label %8, label %_ZN12_GLOBAL__N_111FAddendCoefmLERKS0_.exit

8:                                                ; preds = %2
  %9 = icmp ne i16 %.val18.i, -1
  %.not27.i = select i1 %6, i1 true, i1 %9
  %.val16.i = load i8, ptr %4, align 8
  %10 = trunc i8 %.val16.i to i1
  br i1 %.not27.i, label %22, label %11

11:                                               ; preds = %8
  br i1 %10, label %16, label %12

12:                                               ; preds = %11
  %13 = getelementptr inbounds nuw i8, ptr %0, i64 10
  %14 = load i16, ptr %13, align 2
  %15 = sub i16 0, %14
  store i16 %15, ptr %13, align 2
  br label %_ZN12_GLOBAL__N_111FAddendCoefmLERKS0_.exit

16:                                               ; preds = %11
  %17 = getelementptr inbounds nuw i8, ptr %0, i64 24
  %18 = load ptr, ptr %17, align 8
  %19 = tail call noundef nonnull align 1 ptr @_ZN4llvm11APFloatBase15PPCDoubleDoubleEv() #19
  %.not.i.i.i = icmp eq ptr %18, %19
  br i1 %.not.i.i.i, label %21, label %20

20:                                               ; preds = %16
  tail call void @_ZN4llvm6detail9IEEEFloat10changeSignEv(ptr noundef nonnull align 8 dereferenceable(24) %17) #16
  br label %_ZN12_GLOBAL__N_111FAddendCoefmLERKS0_.exit

21:                                               ; preds = %16
  tail call void @_ZN4llvm6detail13DoubleAPFloat10changeSignEv(ptr noundef nonnull align 8 dereferenceable(16) %17) #16
  br label %_ZN12_GLOBAL__N_111FAddendCoefmLERKS0_.exit

22:                                               ; preds = %8
  br i1 %10, label %28, label %23

23:                                               ; preds = %22
  br i1 %6, label %31, label %24

24:                                               ; preds = %23
  %25 = getelementptr inbounds nuw i8, ptr %0, i64 10
  %26 = load i16, ptr %25, align 2
  %27 = mul i16 %26, %.val18.i
  store i16 %27, ptr %25, align 2
  br label %_ZN12_GLOBAL__N_111FAddendCoefmLERKS0_.exit

28:                                               ; preds = %22
  %29 = getelementptr inbounds nuw i8, ptr %0, i64 24
  %30 = load ptr, ptr %29, align 8
  br label %34

31:                                               ; preds = %23
  %32 = getelementptr inbounds nuw i8, ptr %1, i64 16
  %33 = load ptr, ptr %32, align 8
  tail call fastcc void @_ZN12_GLOBAL__N_111FAddendCoef15convertToFpTypeERKN4llvm12fltSemanticsE(ptr noundef nonnull align 8 dereferenceable(40) %4, ptr noundef nonnull align 1 %33)
  %.val.pre.i = load i8, ptr %1, align 8
  br label %34

34:                                               ; preds = %31, %28
  %.val.i = phi i8 [ %.val.pre.i, %31 ], [ %.val17.i, %28 ]
  %35 = phi ptr [ %33, %31 ], [ %30, %28 ]
  %36 = trunc i8 %.val.i to i1
  br i1 %36, label %51, label %37

37:                                               ; preds = %34
  %38 = load i16, ptr %5, align 2
  %39 = sext i16 %38 to i32
  call fastcc void @_ZN12_GLOBAL__N_111FAddendCoef20createAPFloatFromIntERKN4llvm12fltSemanticsEi(ptr dead_on_unwind noalias writable align 8 %3, ptr noundef nonnull align 1 %35, i32 noundef %39)
  %40 = getelementptr inbounds nuw i8, ptr %0, i64 24
  %41 = load ptr, ptr %40, align 8
  %42 = tail call noundef nonnull align 1 ptr @_ZN4llvm11APFloatBase15PPCDoubleDoubleEv() #19
  %.not.i.i = icmp eq ptr %41, %42
  %43 = getelementptr inbounds nuw i8, ptr %3, i64 8
  br i1 %.not.i.i, label %46, label %44

44:                                               ; preds = %37
  %45 = call noundef i32 @_ZN4llvm6detail9IEEEFloat8multiplyERKS1_NS_12RoundingModeE(ptr noundef nonnull align 8 dereferenceable(24) %40, ptr noundef nonnull align 8 dereferenceable(24) %43, i8 noundef signext 1) #16
  br label %_ZN4llvm7APFloat8multiplyERKS0_NS_12RoundingModeE.exit.i

46:                                               ; preds = %37
  %47 = call noundef i32 @_ZN4llvm6detail13DoubleAPFloat8multiplyERKS1_NS_12RoundingModeE(ptr noundef nonnull align 8 dereferenceable(16) %40, ptr noundef nonnull align 8 dereferenceable(16) %43, i8 noundef signext 1) #16
  br label %_ZN4llvm7APFloat8multiplyERKS0_NS_12RoundingModeE.exit.i

_ZN4llvm7APFloat8multiplyERKS0_NS_12RoundingModeE.exit.i: ; preds = %46, %44
  %48 = load ptr, ptr %43, align 8
  %.not.i21.i = icmp eq ptr %48, %42
  br i1 %.not.i21.i, label %50, label %49

49:                                               ; preds = %_ZN4llvm7APFloat8multiplyERKS0_NS_12RoundingModeE.exit.i
  call void @_ZN4llvm6detail9IEEEFloatD1Ev(ptr noundef nonnull align 8 dereferenceable(24) %43) #16
  br label %_ZN12_GLOBAL__N_111FAddendCoefmLERKS0_.exit

50:                                               ; preds = %_ZN4llvm7APFloat8multiplyERKS0_NS_12RoundingModeE.exit.i
  call void @_ZN4llvm6detail13DoubleAPFloatD2Ev(ptr noundef nonnull align 8 dereferenceable(24) %43) #16
  br label %_ZN12_GLOBAL__N_111FAddendCoefmLERKS0_.exit

51:                                               ; preds = %34
  %52 = getelementptr inbounds nuw i8, ptr %0, i64 24
  %53 = load ptr, ptr %52, align 8
  %54 = tail call noundef nonnull align 1 ptr @_ZN4llvm11APFloatBase15PPCDoubleDoubleEv() #19
  %.not.i22.i = icmp eq ptr %53, %54
  %55 = getelementptr inbounds nuw i8, ptr %1, i64 16
  br i1 %.not.i22.i, label %58, label %56

56:                                               ; preds = %51
  %57 = tail call noundef i32 @_ZN4llvm6detail9IEEEFloat8multiplyERKS1_NS_12RoundingModeE(ptr noundef nonnull align 8 dereferenceable(24) %52, ptr noundef nonnull align 8 dereferenceable(24) %55, i8 noundef signext 1) #16
  br label %_ZN12_GLOBAL__N_111FAddendCoefmLERKS0_.exit

58:                                               ; preds = %51
  %59 = tail call noundef i32 @_ZN4llvm6detail13DoubleAPFloat8multiplyERKS1_NS_12RoundingModeE(ptr noundef nonnull align 8 dereferenceable(16) %52, ptr noundef nonnull align 8 dereferenceable(16) %55, i8 noundef signext 1) #16
  br label %_ZN12_GLOBAL__N_111FAddendCoefmLERKS0_.exit

_ZN12_GLOBAL__N_111FAddendCoefmLERKS0_.exit:      ; preds = %2, %12, %20, %21, %24, %49, %50, %56, %58
  call void @llvm.lifetime.end.p0(i64 32, ptr nonnull %3)
  ret void
}